Certificate:
    Data:
        Version: 3 (0x2)
        Serial Number:
            91:47:fa:1b:de:e0:db:ef
        Signature Algorithm: sha256WithRSAEncryption
        Issuer: C=PL, ST=Lower Silesia, O=SSN, OU=SSN labs, CN=ssnlabs.com/emailAddress=contact@ssnlabs.com
        Validity
            Not Before: Jan  9 07:21:47 2019 GMT
            Not After : Jan  8 07:21:47 2022 GMT
        Subject: C=PL, ST=Lower Silesia, O=SSN, OU=SSN labs, CN=ssnlabs.com/emailAddress=contact@ssnlabs.com
        Subject Public Key Info:
            Public Key Algorithm: rsaEncryption
                RSA Public-Key: (2048 bit)
                Modulus:
                    00:e4:3c:49:16:d7:93:bd:8e:7f:dd:d2:31:00:55:
                    3b:ed:b3:22:97:cf:87:a9:03:1d:87:fc:9b:03:04:
                    ac:2d:95:4b:48:cf:2c:2d:9b:d3:6c:36:76:98:d6:
                    66:54:60:62:0a:8c:59:e6:3f:01:f0:f0:d4:2d:35:
                    ee:93:b6:87:79:ee:16:59:58:1c:07:b4:f0:62:3d:
                    fa:4b:64:73:4d:f2:99:ce:60:b4:93:e7:50:44:e7:
                    31:02:66:c3:85:78:27:32:dc:78:0b:d0:ee:4a:06:
                    3f:3d:f0:b4:d3:ee:7f:0d:ea:fb:9f:7f:25:32:36:
                    ed:09:53:6d:ff:e9:31:e1:2d:b1:28:0f:35:c0:31:
                    3c:45:ad:fa:9b:a3:39:d5:73:a5:51:33:71:f2:26:
                    78:dd:79:10:15:8b:b6:f7:ee:4a:95:26:7d:3e:d9:
                    a5:c0:c3:25:4a:bf:b1:50:88:e2:51:58:f2:3b:37:
                    53:ae:6c:f6:18:d9:73:cf:21:2b:39:4b:2c:e5:c7:
                    5e:be:96:d1:08:1e:21:2d:a3:a5:ff:18:90:14:ce:
                    eb:cf:f4:6a:d0:fc:e8:57:71:6c:73:99:ea:89:ec:
                    0f:cb:45:dd:f9:8f:08:e9:b6:c4:39:05:6e:48:73:
                    70:0a:1d:db:45:f5:ea:c9:22:e2:9f:2e:06:c9:7c:
                    4f:41
                Exponent: 65537 (0x10001)
        X509v3 extensions:
            X509v3 Subject Key Identifier: 
                4A:45:7C:22:4D:8A:E5:BF:49:5C:E6:83:6E:2E:78:E2:71:BD:B2:B4
            X509v3 Authority Key Identifier: 
                keyid:4A:45:7C:22:4D:8A:E5:BF:49:5C:E6:83:6E:2E:78:E2:71:BD:B2:B4

            X509v3 Basic Constraints: critical
                CA:TRUE
    Signature Algorithm: sha256WithRSAEncryption
         64:16:87:47:7d:ce:df:ac:4e:9f:1e:64:7a:34:8d:b3:59:48:
         21:65:25:15:50:6f:1d:00:58:41:c1:17:e6:44:2a:3d:ed:e6:
         35:20:33:a1:45:92:fe:d0:51:18:bb:ab:e0:f9:ee:e5:76:dd:
         da:4f:98:e6:ba:c2:9c:ef:ec:48:f0:8a:25:8e:c7:4a:c6:e5:
         92:12:49:f5:31:02:b1:24:50:e8:05:12:a5:ca:12:a3:4d:0a:
         26:db:c3:d9:ae:53:64:0a:e1:67:f5:49:f3:b9:32:93:fb:ef:
         7c:5c:b4:35:f6:dd:9e:83:f7:8c:49:1b:2c:1c:2e:85:7e:5e:
         a6:e3:e6:08:92:23:4a:c6:0c:28:22:0d:1d:2a:79:e8:29:f1:
         5f:33:e3:74:62:53:7e:25:58:6f:d1:e2:b7:5b:31:3d:0f:b7:
         cd:4c:31:03:20:d0:d8:d8:27:f4:fd:52:8b:dc:c4:b4:8b:01:
         1b:b7:3b:7b:90:fd:ed:43:a8:cf:86:bd:f4:a1:48:6f:95:b0:
         a2:a9:66:ae:a3:45:23:0a:63:60:18:b7:b5:97:47:0d:2c:e4:
         ef:80:75:7e:3b:02:2d:0d:78:54:32:02:82:f4:50:f2:b7:cf:
         bc:4d:98:73:d6:0c:c6:4a:85:0b:a7:99:6b:69:c3:7a:a4:f5:
         a1:a5:e4:15
-----BEGIN CERTIFICATE-----
MIID2DCCAsCgAwIBAgIJAJFH+hve4NvvMA0GCSqGSIb3DQEBCwUAMIGAMQswCQYD
VQQGEwJQTDEWMBQGA1UECAwNTG93ZXIgU2lsZXNpYTEMMAoGA1UECgwDU1NOMREw
DwYDVQQLDAhTU04gbGFiczEUMBIGA1UEAwwLc3NubGFicy5jb20xIjAgBgkqhkiG
9w0BCQEWE2NvbnRhY3RAc3NubGFicy5jb20wHhcNMTkwMTA5MDcyMTQ3WhcNMjIw
MTA4MDcyMTQ3WjCBgDELMAkGA1UEBhMCUEwxFjAUBgNVBAgMDUxvd2VyIFNpbGVz
aWExDDAKBgNVBAoMA1NTTjERMA8GA1UECwwIU1NOIGxhYnMxFDASBgNVBAMMC3Nz
bmxhYnMuY29tMSIwIAYJKoZIhvcNAQkBFhNjb250YWN0QHNzbmxhYnMuY29tMIIB
IjANBgkqhkiG9w0BAQEFAAOCAQ8AMIIBCgKCAQEA5DxJFteTvY5/3dIxAFU77bMi
l8+HqQMdh/ybAwSsLZVLSM8sLZvTbDZ2mNZmVGBiCoxZ5j8B8PDULTXuk7aHee4W
WVgcB7TwYj36S2RzTfKZzmC0k+dQROcxAmbDhXgnMtx4C9DuSgY/PfC00+5/Der7
n38lMjbtCVNt/+kx4S2xKA81wDE8Ra36m6M51XOlUTNx8iZ43XkQFYu29+5KlSZ9
PtmlwMMlSr+xUIjiUVjyOzdTrmz2GNlzzyErOUss5cdevpbRCB4hLaOl/xiQFM7r
z/Rq0PzoV3Fsc5nqiewPy0Xd+Y8I6bbEOQVuSHNwCh3bRfXqySLiny4GyXxPQQID
AQABo1MwUTAdBgNVHQ4EFgQUSkV8Ik2K5b9JXOaDbi544nG9srQwHwYDVR0jBBgw
FoAUSkV8Ik2K5b9JXOaDbi544nG9srQwDwYDVR0TAQH/BAUwAwEB/zANBgkqhkiG
9w0BAQsFAAOCAQEAZBaHR33O36xOnx5kejSNs1lIIWUlFVBvHQBYQcEX5kQqPe3m
NSAzoUWS/tBRGLur4Pnu5Xbd2k+Y5rrCnO/sSPCKJY7HSsblkhJJ9TECsSRQ6AUS
pcoSo00KJtvD2a5TZArhZ/VJ87kyk/vvfFy0NfbdnoP3jEkbLBwuhX5epuPmCJIj
SsYMKCINHSp56CnxXzPjdGJTfiVYb9Hit1sxPQ+3zUwxAyDQ2Ngn9P1Si9zEtIsB
G7c7e5D97UOoz4a99KFIb5WwoqlmrqNFIwpjYBi3tZdHDSzk74B1fjsCLQ14VDIC
gvRQ8rfPvE2Yc9YMxkqFC6eZa2nDeqT1oaXkFQ==
-----END CERTIFICATE-----
