Certificate:
    Data:
        Version: 3 (0x2)
        Serial Number:
            91:47:fa:1b:de:e0:db:f0
        Signature Algorithm: sha256WithRSAEncryption
        Issuer: C=PL, ST=Lower Silesia, O=SSN, OU=SSN labs, CN=ssnlabs.com/emailAddress=contact@ssnlabs.com
        Validity
            Not Before: Jan  9 07:23:13 2019 GMT
            Not After : Jan  9 07:23:13 2020 GMT
        Subject: C=PL, ST=Lower Silesia, L=Wroclaw, O=SSN, OU=SSN labs certificate, CN=localhost/emailAddress=admin@localhost
        Subject Public Key Info:
            Public Key Algorithm: rsaEncryption
                RSA Public-Key: (2048 bit)
                Modulus:
                    00:c7:f4:e1:2b:d1:84:6c:d3:28:36:85:e1:c6:c1:
                    ee:61:83:f1:27:38:75:58:05:5e:9f:34:f7:6e:09:
                    5b:c4:63:55:a9:e0:f9:33:78:9c:9a:ae:ab:6e:1f:
                    f3:8c:7e:24:64:64:d2:ba:a8:11:30:42:42:60:b1:
                    37:65:04:3c:91:a8:02:55:6c:6a:af:f8:56:ee:84:
                    39:04:11:c2:8a:aa:29:6c:43:45:7b:f9:bd:f9:82:
                    0c:f1:fe:be:2d:d8:a9:3e:db:d8:e2:f9:88:8d:60:
                    98:b3:8e:ff:a5:8c:23:df:b5:64:8c:55:27:58:a9:
                    70:bf:cc:7f:6b:90:3a:26:f0:55:6e:5f:f5:e5:df:
                    3e:f0:bd:19:9f:91:6f:ee:90:7a:14:bb:40:7b:5b:
                    f4:5d:b7:df:8c:91:92:db:21:95:50:8c:e8:7b:c0:
                    3c:c4:35:95:81:52:4d:53:23:b1:ee:d0:b6:6b:af:
                    09:f5:22:4a:be:6d:fd:b9:fb:36:8c:19:3d:7a:3e:
                    8c:17:2b:c4:73:10:d2:6c:89:88:d1:57:bd:81:37:
                    7e:cc:25:8f:8a:54:1a:5b:9b:2e:a9:4d:e9:9e:ef:
                    57:c6:0d:37:e6:70:af:ce:1d:21:d6:44:33:91:49:
                    7f:02:1f:25:d9:d7:b1:93:1f:0a:13:8c:4a:b7:81:
                    13:d5
                Exponent: 65537 (0x10001)
        X509v3 extensions:
            X509v3 Basic Constraints: 
                CA:FALSE
            Netscape Comment: 
                OpenSSL Generated Certificate
            X509v3 Subject Key Identifier: 
                33:3F:74:DB:3E:AD:7B:3D:07:EF:C2:CF:61:C7:3C:80:D6:60:1D:CF
            X509v3 Authority Key Identifier: 
                keyid:4A:45:7C:22:4D:8A:E5:BF:49:5C:E6:83:6E:2E:78:E2:71:BD:B2:B4

    Signature Algorithm: sha256WithRSAEncryption
         90:5b:30:a9:a6:a4:f4:ff:79:ba:2f:79:56:50:7e:b1:c3:c2:
         f9:c0:0a:ca:16:cb:08:1a:ad:04:ad:64:04:b6:ef:b5:0b:f9:
         63:c0:61:63:c5:6e:6c:e7:ab:91:a1:d8:df:5e:eb:e5:c7:d6:
         ff:20:07:25:18:c7:0f:aa:ef:90:31:e6:98:fe:1a:9f:f2:c0:
         d4:4b:c4:4c:a3:bd:2d:10:61:78:c9:86:19:40:c6:87:81:f1:
         88:77:cb:6f:8a:ed:8e:df:7e:b1:5e:e2:40:24:8a:20:f6:eb:
         9b:53:85:6f:0b:a6:1a:d6:b6:24:aa:39:16:97:de:df:15:61:
         60:4f:d7:ad:b4:d9:d3:cb:32:1c:e1:2e:76:87:54:ab:82:cd:
         a3:9d:3b:dc:d5:c9:60:05:77:53:4b:83:b1:81:90:63:0f:8b:
         46:77:5d:da:56:ab:0f:c6:3c:a5:dd:44:85:72:0d:36:12:92:
         5a:e6:2f:e1:83:14:8f:09:79:19:f9:7f:05:d5:56:bc:ab:1e:
         4b:dc:39:41:30:94:74:20:a2:f1:b8:c5:76:5a:fd:1b:31:1c:
         80:6e:2c:02:ae:e7:77:96:e0:4f:2c:c2:41:d3:6f:28:39:e2:
         43:dc:f7:20:d1:83:e2:df:32:14:11:33:7b:e4:a5:33:25:e6:
         1c:e1:77:34
-----BEGIN CERTIFICATE-----
MIIEGDCCAwCgAwIBAgIJAJFH+hve4NvwMA0GCSqGSIb3DQEBCwUAMIGAMQswCQYD
VQQGEwJQTDEWMBQGA1UECAwNTG93ZXIgU2lsZXNpYTEMMAoGA1UECgwDU1NOMREw
DwYDVQQLDAhTU04gbGFiczEUMBIGA1UEAwwLc3NubGFicy5jb20xIjAgBgkqhkiG
9w0BCQEWE2NvbnRhY3RAc3NubGFicy5jb20wHhcNMTkwMTA5MDcyMzEzWhcNMjAw
MTA5MDcyMzEzWjCBmDELMAkGA1UEBhMCUEwxFjAUBgNVBAgMDUxvd2VyIFNpbGVz
aWExEDAOBgNVBAcMB1dyb2NsYXcxDDAKBgNVBAoMA1NTTjEdMBsGA1UECwwUU1NO
IGxhYnMgY2VydGlmaWNhdGUxEjAQBgNVBAMMCWxvY2FsaG9zdDEeMBwGCSqGSIb3
DQEJARYPYWRtaW5AbG9jYWxob3N0MIIBIjANBgkqhkiG9w0BAQEFAAOCAQ8AMIIB
CgKCAQEAx/ThK9GEbNMoNoXhxsHuYYPxJzh1WAVenzT3bglbxGNVqeD5M3icmq6r
bh/zjH4kZGTSuqgRMEJCYLE3ZQQ8kagCVWxqr/hW7oQ5BBHCiqopbENFe/m9+YIM
8f6+LdipPtvY4vmIjWCYs47/pYwj37VkjFUnWKlwv8x/a5A6JvBVbl/15d8+8L0Z
n5Fv7pB6FLtAe1v0XbffjJGS2yGVUIzoe8A8xDWVgVJNUyOx7tC2a68J9SJKvm39
ufs2jBk9ej6MFyvEcxDSbImI0Ve9gTd+zCWPilQaW5suqU3pnu9Xxg035nCvzh0h
1kQzkUl/Ah8l2dexkx8KE4xKt4ET1QIDAQABo3sweTAJBgNVHRMEAjAAMCwGCWCG
SAGG+EIBDQQfFh1PcGVuU1NMIEdlbmVyYXRlZCBDZXJ0aWZpY2F0ZTAdBgNVHQ4E
FgQUMz902z6tez0H78LPYcc8gNZgHc8wHwYDVR0jBBgwFoAUSkV8Ik2K5b9JXOaD
bi544nG9srQwDQYJKoZIhvcNAQELBQADggEBAJBbMKmmpPT/eboveVZQfrHDwvnA
CsoWywgarQStZAS277UL+WPAYWPFbmznq5Gh2N9e6+XH1v8gByUYxw+q75Ax5pj+
Gp/ywNRLxEyjvS0QYXjJhhlAxoeB8Yh3y2+K7Y7ffrFe4kAkiiD265tThW8LphrW
tiSqORaX3t8VYWBP16202dPLMhzhLnaHVKuCzaOdO9zVyWAFd1NLg7GBkGMPi0Z3
XdpWqw/GPKXdRIVyDTYSklrmL+GDFI8JeRn5fwXVVryrHkvcOUEwlHQgovG4xXZa
/RsxHIBuLAKu53eW4E8swkHTbyg54kPc9yDRg+LfMhQRM3vkpTMl5hzhdzQ=
-----END CERTIFICATE-----
